target datalayout = "e-m:e-p270:32:32-p271:32:32-p272:64:64-i64:64-i128:128-f80:128-n8:16:32:64-S128"
target triple = "x86_64-pc-linux-gnu"

%struct.relidcacheent = type { i32, ptr }
%struct.HASH_SEQ_STATUS = type { ptr, i32, ptr, i8, i32 }

@RelationIdCache = internal global ptr null, align 8
@in_progress_list_len = internal global i32 0, align 4
@eoxact_list_overflowed = internal global i8 0, align 1
@eoxact_list_len = internal global i32 0, align 4
@eoxact_list = internal global [32 x i32] zeroinitializer, align 16

; Function Attrs: nounwind uwtable
define dso_local void @AtEOSubXact_RelationCache(i1 noundef zeroext %0, i32 noundef %1, i32 noundef %2) #0 {
  %4 = alloca i8, align 1
  %5 = alloca i32, align 4
  %6 = alloca i32, align 4
  %7 = alloca %struct.HASH_SEQ_STATUS, align 8
  %8 = alloca ptr, align 8
  %9 = alloca i32, align 4
  %10 = zext i1 %0 to i8
  store i8 %10, ptr %4, align 1
  store i32 %1, ptr %5, align 4
  store i32 %2, ptr %6, align 4
  call void @llvm.lifetime.start.p0(i64 32, ptr %7) #11
  call void @llvm.lifetime.start.p0(i64 8, ptr %8) #11
  call void @llvm.lifetime.start.p0(i64 4, ptr %9) #11
  store i32 0, ptr @in_progress_list_len, align 4
  %11 = load i8, ptr @eoxact_list_overflowed, align 1, !range !4, !noundef !5
  %12 = trunc i8 %11 to i1
  br i1 %12, label %13, label %27

13:                                               ; preds = %3
  %14 = load ptr, ptr @RelationIdCache, align 8
  call void @hash_seq_init(ptr noundef %7, ptr noundef %14)
  br label %15

15:                                               ; preds = %18, %13
  %16 = call ptr @hash_seq_search(ptr noundef %7)
  store ptr %16, ptr %8, align 8
  %17 = icmp ne ptr %16, null
  br i1 %17, label %18, label %26

18:                                               ; preds = %15
  %19 = load ptr, ptr %8, align 8
  %20 = getelementptr inbounds nuw %struct.relidcacheent, ptr %19, i32 0, i32 1
  %21 = load ptr, ptr %20, align 8
  %22 = load i8, ptr %4, align 1, !range !4, !noundef !5
  %23 = trunc i8 %22 to i1
  %24 = load i32, ptr %5, align 4
  %25 = load i32, ptr %6, align 4
  call void @AtEOSubXact_cleanup(ptr noundef %21, i1 noundef zeroext %23, i32 noundef %24, i32 noundef %25)
  br label %15, !llvm.loop !18

26:                                               ; preds = %15
  br label %53

27:                                               ; preds = %3
  store i32 0, ptr %9, align 4
  br label %28

28:                                               ; preds = %49, %27
  %29 = load i32, ptr %9, align 4
  %30 = load i32, ptr @eoxact_list_len, align 4
  %31 = icmp slt i32 %29, %30
  br i1 %31, label %32, label %52

32:                                               ; preds = %28
  %33 = load ptr, ptr @RelationIdCache, align 8
  %34 = load i32, ptr %9, align 4
  %35 = sext i32 %34 to i64
  %36 = getelementptr inbounds [32 x i32], ptr @eoxact_list, i64 0, i64 %35
  %37 = call ptr @hash_search(ptr noundef %33, ptr noundef %36, i32 noundef 0, ptr noundef null)
  store ptr %37, ptr %8, align 8
  %38 = load ptr, ptr %8, align 8
  %39 = icmp ne ptr %38, null
  br i1 %39, label %40, label %48

40:                                               ; preds = %32
  %41 = load ptr, ptr %8, align 8
  %42 = getelementptr inbounds nuw %struct.relidcacheent, ptr %41, i32 0, i32 1
  %43 = load ptr, ptr %42, align 8
  %44 = load i8, ptr %4, align 1, !range !4, !noundef !5
  %45 = trunc i8 %44 to i1
  %46 = load i32, ptr %5, align 4
  %47 = load i32, ptr %6, align 4
  call void @AtEOSubXact_cleanup(ptr noundef %43, i1 noundef zeroext %45, i32 noundef %46, i32 noundef %47)
  br label %48

48:                                               ; preds = %40, %32
  br label %49

49:                                               ; preds = %48
  %50 = load i32, ptr %9, align 4
  %51 = add i32 %50, 1
  store i32 %51, ptr %9, align 4
  br label %28, !llvm.loop !19

52:                                               ; preds = %28
  br label %53

53:                                               ; preds = %52, %26
  call void @llvm.lifetime.end.p0(i64 4, ptr %9) #11
  call void @llvm.lifetime.end.p0(i64 8, ptr %8) #11
  call void @llvm.lifetime.end.p0(i64 32, ptr %7) #11
  ret void
}