; Function Attrs: nounwind uwtable
define dso_local void @AtEOSubXact_RelationCache(i1 noundef zeroext %0, i32 noundef %1, i32 noundef %2) local_unnamed_addr #0 {
  %4 = alloca %struct.HASH_SEQ_STATUS, align 8
  call void @llvm.lifetime.start.p0(i64 32, ptr nonnull %4) #13
  store i32 0, ptr @in_progress_list_len, align 4
  %.b13 = load i1, ptr @eoxact_list_overflowed, align 1
  br i1 %.b13, label %7, label %.preheader

.preheader:                                       ; preds = %3
  %5 = load i32, ptr @eoxact_list_len, align 4
  %6 = icmp sgt i32 %5, 0
  br i1 %6, label %.lr.ph, label %.loopexit

7:                                                ; preds = %3
  %8 = load ptr, ptr @RelationIdCache, align 8
  call void @hash_seq_init(ptr noundef nonnull %4, ptr noundef %8) #13
  %9 = call ptr @hash_seq_search(ptr noundef nonnull %4) #13
  %.not1417 = icmp eq ptr %9, null
  br i1 %.not1417, label %.loopexit, label %.lr.ph18

.lr.ph18:                                         ; preds = %7, %.lr.ph18
  %10 = phi ptr [ %13, %.lr.ph18 ], [ %9, %7 ]
  %11 = getelementptr inbounds nuw i8, ptr %10, i64 8
  %12 = load ptr, ptr %11, align 8
  call fastcc void @AtEOSubXact_cleanup(ptr noundef %12, i1 noundef zeroext %0, i32 noundef %1, i32 noundef %2)
  %13 = call ptr @hash_seq_search(ptr noundef nonnull %4) #13
  %.not14 = icmp eq ptr %13, null
  br i1 %.not14, label %.loopexit, label %.lr.ph18, !llvm.loop !24

.lr.ph:                                           ; preds = %.preheader, %20
  %indvars.iv = phi i64 [ %indvars.iv.next, %20 ], [ 0, %.preheader ]
  %14 = load ptr, ptr @RelationIdCache, align 8
  %15 = getelementptr inbounds nuw [32 x i32], ptr @eoxact_list, i64 0, i64 %indvars.iv
  %16 = tail call ptr @hash_search(ptr noundef %14, ptr noundef nonnull %15, i32 noundef 0, ptr noundef null) #13
  %.not = icmp eq ptr %16, null
  br i1 %.not, label %20, label %17

17:                                               ; preds = %.lr.ph
  %18 = getelementptr inbounds nuw i8, ptr %16, i64 8
  %19 = load ptr, ptr %18, align 8
  tail call fastcc void @AtEOSubXact_cleanup(ptr noundef %19, i1 noundef zeroext %0, i32 noundef %1, i32 noundef %2)
  br label %20

20:                                               ; preds = %.lr.ph, %17
  %indvars.iv.next = add nuw nsw i64 %indvars.iv, 1
  %21 = load i32, ptr @eoxact_list_len, align 4
  %22 = sext i32 %21 to i64
  %23 = icmp slt i64 %indvars.iv.next, %22
  br i1 %23, label %.lr.ph, label %.loopexit, !llvm.loop !25

.loopexit:                                        ; preds = %20, %.lr.ph18, %.preheader, %7
  call void @llvm.lifetime.end.p0(i64 32, ptr nonnull %4) #13
  ret void
}